; Function Attrs: nounwind uwtable
define ptr @l_Lake_Toml_RBDict_map___rarg(ptr readnone captures(none) %0, ptr noundef %1, ptr noundef %2) local_unnamed_addr #0 {
  %.val28 = load i32, ptr %2, align 4, !tbaa !8
  %4 = icmp eq i32 %.val28, 1
  %5 = getelementptr inbounds nuw i8, ptr %2, i64 8
  %6 = load ptr, ptr %5, align 8, !tbaa !4
  br i1 %4, label %7, label %10

7:                                                ; preds = %3
  %8 = getelementptr i8, ptr %6, i64 8
  %.val27 = load i64, ptr %8, align 8, !tbaa !14
  %9 = tail call ptr @l_Array_mapMUnsafe_map___at_Lake_Toml_RBDict_map___spec__1___rarg(ptr noundef %1, i64 noundef %.val27, i64 noundef 0, ptr noundef %6)
  store ptr %9, ptr %5, align 8, !tbaa !4
  br label %46

10:                                               ; preds = %3
  %11 = getelementptr inbounds nuw i8, ptr %2, i64 16
  %12 = load ptr, ptr %11, align 8, !tbaa !4
  %13 = ptrtoint ptr %12 to i64
  %14 = and i64 %13, 1
  %.not = icmp eq i64 %14, 0
  br i1 %.not, label %15, label %lean_inc.exit26

15:                                               ; preds = %10
  %.val.i = load i32, ptr %12, align 4, !tbaa !8
  %16 = icmp sgt i32 %.val.i, 0
  br i1 %16, label %17, label %19, !prof !13

17:                                               ; preds = %15
  %18 = add nuw i32 %.val.i, 1
  store i32 %18, ptr %12, align 4, !tbaa !8
  br label %lean_inc.exit26

19:                                               ; preds = %15
  %.not.i29 = icmp eq i32 %.val.i, 0
  br i1 %.not.i29, label %lean_inc.exit26, label %20

20:                                               ; preds = %19
  tail call void @lean_inc_ref_cold(ptr noundef nonnull %12) #5
  br label %lean_inc.exit26

lean_inc.exit26:                                  ; preds = %20, %19, %17, %10
  %21 = ptrtoint ptr %6 to i64
  %22 = and i64 %21, 1
  %.not33 = icmp eq i64 %22, 0
  br i1 %.not33, label %23, label %lean_inc.exit

23:                                               ; preds = %lean_inc.exit26
  %.val.i30 = load i32, ptr %6, align 4, !tbaa !8
  %24 = icmp sgt i32 %.val.i30, 0
  br i1 %24, label %25, label %27, !prof !13

25:                                               ; preds = %23
  %26 = add nuw i32 %.val.i30, 1
  store i32 %26, ptr %6, align 4, !tbaa !8
  br label %lean_inc.exit

27:                                               ; preds = %23
  %.not.i31 = icmp eq i32 %.val.i30, 0
  br i1 %.not.i31, label %lean_inc.exit, label %28

28:                                               ; preds = %27
  tail call void @lean_inc_ref_cold(ptr noundef nonnull %6) #5
  br label %lean_inc.exit

lean_inc.exit:                                    ; preds = %28, %27, %25, %lean_inc.exit26
  %29 = ptrtoint ptr %2 to i64
  %30 = and i64 %29, 1
  %.not34 = icmp eq i64 %30, 0
  br i1 %.not34, label %31, label %lean_dec.exit

31:                                               ; preds = %lean_inc.exit
  %32 = load i32, ptr %2, align 4, !tbaa !8
  %33 = icmp sgt i32 %32, 1
  br i1 %33, label %34, label %36, !prof !13

34:                                               ; preds = %31
  %35 = add nsw i32 %32, -1
  store i32 %35, ptr %2, align 4, !tbaa !8
  br label %lean_dec.exit

36:                                               ; preds = %31
  %.not.i = icmp eq i32 %32, 0
  br i1 %.not.i, label %lean_dec.exit, label %37

37:                                               ; preds = %36
  tail call void @lean_dec_ref_cold(ptr noundef nonnull %2) #5
  br label %lean_dec.exit

lean_dec.exit:                                    ; preds = %37, %36, %34, %lean_inc.exit
  %38 = getelementptr i8, ptr %6, i64 8
  %.val = load i64, ptr %38, align 8, !tbaa !14
  %39 = tail call ptr @l_Array_mapMUnsafe_map___at_Lake_Toml_RBDict_map___spec__1___rarg(ptr noundef %1, i64 noundef %.val, i64 noundef 0, ptr noundef %6)
  tail call void @lean_inc_heartbeat() #5
  %40 = tail call noalias ptr @mi_malloc_small(i64 noundef 24) #5
  %41 = icmp eq ptr %40, null
  br i1 %41, label %42, label %lean_alloc_ctor.exit

42:                                               ; preds = %lean_dec.exit
  tail call void @lean_internal_panic_out_of_memory() #6
  unreachable

lean_alloc_ctor.exit:                             ; preds = %lean_dec.exit
  %43 = getelementptr inbounds nuw i8, ptr %40, i64 4
  store i32 1, ptr %40, align 4, !tbaa !8
  store i32 131096, ptr %43, align 4
  %44 = getelementptr inbounds nuw i8, ptr %40, i64 8
  store ptr %39, ptr %44, align 8, !tbaa !4
  %45 = getelementptr inbounds nuw i8, ptr %40, i64 16
  store ptr %12, ptr %45, align 8, !tbaa !4
  br label %46

46:                                               ; preds = %lean_alloc_ctor.exit, %7
  %.0 = phi ptr [ %2, %7 ], [ %40, %lean_alloc_ctor.exit ]
  ret ptr %.0
}